; Function Attrs: nounwind uwtable
define dso_local range(i32 0, 2) i32 @overMaxmemoryAfterAlloc(i64 noundef %0) local_unnamed_addr #0 {
  %2 = load i64, ptr getelementptr inbounds nuw (i8, ptr @server, i64 7520), align 8, !tbaa !69
  %.not = icmp eq i64 %2, 0
  br i1 %.not, label %27, label %3

3:                                                ; preds = %1
  %4 = tail call i64 @zmalloc_used_memory() #15
  %5 = add i64 %4, %0
  %6 = load i64, ptr getelementptr inbounds nuw (i8, ptr @server, i64 7520), align 8, !tbaa !69
  %.not9 = icmp ugt i64 %5, %6
  br i1 %.not9, label %7, label %27

7:                                                ; preds = %3
  %8 = load i64, ptr getelementptr inbounds nuw (i8, ptr @server, i64 7224), align 8, !tbaa !65
  %9 = load i64, ptr getelementptr inbounds nuw (i8, ptr @server, i64 7112), align 8, !tbaa !66
  %10 = icmp sgt i64 %8, %9
  br i1 %10, label %11, label %16

11:                                               ; preds = %7
  %12 = sdiv i64 %9, 16384
  %13 = shl nsw i64 %12, 6
  %14 = add i64 %9, 64
  %15 = add i64 %14, %13
  %spec.select.i = tail call i64 @llvm.usub.sat.i64(i64 %8, i64 %15)
  br label %16

16:                                               ; preds = %11, %7
  %.0.i = phi i64 [ %spec.select.i, %11 ], [ 0, %7 ]
  %17 = load i32, ptr getelementptr inbounds nuw (i8, ptr @server, i64 6520), align 8, !tbaa !67
  %.not.i = icmp eq i32 %17, 0
  br i1 %.not.i, label %freeMemoryGetNotCountedMemory.exit, label %18

18:                                               ; preds = %16
  %19 = load ptr, ptr getelementptr inbounds nuw (i8, ptr @server, i64 6600), align 8, !tbaa !68
  %20 = tail call i64 @sdsAllocSize(ptr noundef %19) #15
  %21 = add i64 %20, %.0.i
  %.pre = load i64, ptr getelementptr inbounds nuw (i8, ptr @server, i64 7520), align 8, !tbaa !69
  br label %freeMemoryGetNotCountedMemory.exit

freeMemoryGetNotCountedMemory.exit:               ; preds = %16, %18
  %22 = phi i64 [ %.pre, %18 ], [ %6, %16 ]
  %.2.i = phi i64 [ %21, %18 ], [ %.0.i, %16 ]
  %23 = tail call i64 @llvm.usub.sat.i64(i64 %4, i64 %.2.i)
  %24 = add i64 %23, %0
  %25 = icmp ugt i64 %24, %22
  %26 = zext i1 %25 to i32
  br label %27

27:                                               ; preds = %freeMemoryGetNotCountedMemory.exit, %3, %1
  %.0 = phi i32 [ 0, %1 ], [ %26, %freeMemoryGetNotCountedMemory.exit ], [ 0, %3 ]
  ret i32 %.0
}